target datalayout = "e-m:e-p270:32:32-p271:32:32-p272:64:64-i64:64-i128:128-f80:128-n8:16:32:64-S128"
target triple = "x86_64-pc-linux-gnu"

%struct.PmeErrorInputs = type { i64, i32, float, [3 x [3 x float]], i32, ptr, ptr, ptr, ptr, ptr, ptr, ptr, ptr, ptr, float, float, float, ptr, ptr, ptr, ptr, i8 }
%struct.t_commrec = type <{ i32, i32, i32, i32, ptr, ptr, i32, [4 x i8], ptr, i32, i32, %struct.gmx_nodecomm_t, %"class.std::unique_ptr.125", ptr, i32, [4 x i8] }>
%struct.gmx_nodecomm_t = type { i8, ptr, i32, ptr }
%"class.std::unique_ptr.125" = type { %"struct.std::__uniq_ptr_data.126" }
%"struct.std::__uniq_ptr_data.126" = type { %"class.std::__uniq_ptr_impl.127" }
%"class.std::__uniq_ptr_impl.127" = type { %"class.std::tuple.128" }
%"class.std::tuple.128" = type { %"struct.std::_Tuple_impl.129" }
%"struct.std::_Tuple_impl.129" = type { %"struct.std::_Head_base.132" }
%"struct.std::_Head_base.132" = type { ptr }

; Function Attrs: mustprogress uwtable
define linkonce_odr void @_Z8block_bcIbEvP10tmpi_comm_RT_(ptr noundef %0, ptr noundef nonnull align 1 dereferenceable(1) %1) #0 comdat {
  %3 = alloca ptr, align 8
  %4 = alloca ptr, align 8
  store ptr %0, ptr %3, align 8
  store ptr %1, ptr %4, align 8
  %5 = load ptr, ptr %4, align 8
  %6 = load ptr, ptr %3, align 8
  call void @_Z9gmx_bcastmPvP10tmpi_comm_(i64 noundef 1, ptr noundef %5, ptr noundef %6)
  ret void
}

; Function Attrs: mustprogress uwtable
define linkonce_odr void @_Z8block_bcIiEvP10tmpi_comm_RT_(ptr noundef %0, ptr noundef nonnull align 4 dereferenceable(4) %1) #0 comdat {
  %3 = alloca ptr, align 8
  %4 = alloca ptr, align 8
  store ptr %0, ptr %3, align 8
  store ptr %1, ptr %4, align 8
  %5 = load ptr, ptr %4, align 8
  %6 = load ptr, ptr %3, align 8
  call void @_Z9gmx_bcastmPvP10tmpi_comm_(i64 noundef 4, ptr noundef %5, ptr noundef %6)
  ret void
}

; Function Attrs: mustprogress uwtable
define linkonce_odr void @_Z8block_bcIA3_A3_fEvP10tmpi_comm_RT_(ptr noundef %0, ptr noundef nonnull align 4 dereferenceable(36) %1) #0 comdat {
  %3 = alloca ptr, align 8
  %4 = alloca ptr, align 8
  store ptr %0, ptr %3, align 8
  store ptr %1, ptr %4, align 8
  %5 = load ptr, ptr %4, align 8
  %6 = load ptr, ptr %3, align 8
  call void @_Z9gmx_bcastmPvP10tmpi_comm_(i64 noundef 36, ptr noundef %5, ptr noundef %6)
  ret void
}

; Function Attrs: mustprogress uwtable
define linkonce_odr void @_Z8block_bcIfEvP10tmpi_comm_RT_(ptr noundef %0, ptr noundef nonnull align 4 dereferenceable(4) %1) #0 comdat {
  %3 = alloca ptr, align 8
  %4 = alloca ptr, align 8
  store ptr %0, ptr %3, align 8
  store ptr %1, ptr %4, align 8
  %5 = load ptr, ptr %4, align 8
  %6 = load ptr, ptr %3, align 8
  call void @_Z9gmx_bcastmPvP10tmpi_comm_(i64 noundef 4, ptr noundef %5, ptr noundef %6)
  ret void
}

; Function Attrs: mustprogress uwtable
define linkonce_odr void @_Z9nblock_bcIfEvP10tmpi_comm_mPT_(ptr noundef %0, i64 noundef %1, ptr noundef %2) #0 comdat {
  %4 = alloca ptr, align 8
  %5 = alloca i64, align 8
  %6 = alloca ptr, align 8
  store ptr %0, ptr %4, align 8
  store i64 %1, ptr %5, align 8
  store ptr %2, ptr %6, align 8
  %7 = load i64, ptr %5, align 8
  %8 = mul i64 %7, 4
  %9 = load ptr, ptr %6, align 8
  %10 = load ptr, ptr %4, align 8
  call void @_Z9gmx_bcastmPvP10tmpi_comm_(i64 noundef %8, ptr noundef %9, ptr noundef %10)
  ret void
}

; Function Attrs: mustprogress uwtable
define linkonce_odr void @_Z9nblock_bcIiEvP10tmpi_comm_mPT_(ptr noundef %0, i64 noundef %1, ptr noundef %2) #0 comdat {
  %4 = alloca ptr, align 8
  %5 = alloca i64, align 8
  %6 = alloca ptr, align 8
  store ptr %0, ptr %4, align 8
  store i64 %1, ptr %5, align 8
  store ptr %2, ptr %6, align 8
  %7 = load i64, ptr %5, align 8
  %8 = mul i64 %7, 4
  %9 = load ptr, ptr %6, align 8
  %10 = load ptr, ptr %4, align 8
  call void @_Z9gmx_bcastmPvP10tmpi_comm_(i64 noundef %8, ptr noundef %9, ptr noundef %10)
  ret void
}

; Function Attrs: mustprogress uwtable
define internal void @_ZL10bcast_infoP14PmeErrorInputsPK9t_commrec(ptr noundef %0, ptr noundef %1) #0 {
  %3 = alloca ptr, align 8
  %4 = alloca ptr, align 8
  store ptr %0, ptr %3, align 8
  store ptr %1, ptr %4, align 8
  %5 = load ptr, ptr %4, align 8
  %6 = getelementptr inbounds %struct.t_commrec, ptr %5, i32 0, i32 5
  %7 = load ptr, ptr %6, align 8
  %8 = load ptr, ptr %3, align 8
  %9 = getelementptr inbounds %struct.PmeErrorInputs, ptr %8, i32 0, i32 1
  %10 = load i32, ptr %9, align 8
  %11 = sext i32 %10 to i64
  %12 = load ptr, ptr %3, align 8
  %13 = getelementptr inbounds %struct.PmeErrorInputs, ptr %12, i32 0, i32 8
  %14 = load ptr, ptr %13, align 8
  call void @_Z9nblock_bcIiEvP10tmpi_comm_mPT_(ptr noundef %7, i64 noundef %11, ptr noundef %14)
  %15 = load ptr, ptr %4, align 8
  %16 = getelementptr inbounds %struct.t_commrec, ptr %15, i32 0, i32 5
  %17 = load ptr, ptr %16, align 8
  %18 = load ptr, ptr %3, align 8
  %19 = getelementptr inbounds %struct.PmeErrorInputs, ptr %18, i32 0, i32 1
  %20 = load i32, ptr %19, align 8
  %21 = sext i32 %20 to i64
  %22 = load ptr, ptr %3, align 8
  %23 = getelementptr inbounds %struct.PmeErrorInputs, ptr %22, i32 0, i32 9
  %24 = load ptr, ptr %23, align 8
  call void @_Z9nblock_bcIiEvP10tmpi_comm_mPT_(ptr noundef %17, i64 noundef %21, ptr noundef %24)
  %25 = load ptr, ptr %4, align 8
  %26 = getelementptr inbounds %struct.t_commrec, ptr %25, i32 0, i32 5
  %27 = load ptr, ptr %26, align 8
  %28 = load ptr, ptr %3, align 8
  %29 = getelementptr inbounds %struct.PmeErrorInputs, ptr %28, i32 0, i32 1
  %30 = load i32, ptr %29, align 8
  %31 = sext i32 %30 to i64
  %32 = load ptr, ptr %3, align 8
  %33 = getelementptr inbounds %struct.PmeErrorInputs, ptr %32, i32 0, i32 10
  %34 = load ptr, ptr %33, align 8
  call void @_Z9nblock_bcIiEvP10tmpi_comm_mPT_(ptr noundef %27, i64 noundef %31, ptr noundef %34)
  %35 = load ptr, ptr %4, align 8
  %36 = getelementptr inbounds %struct.t_commrec, ptr %35, i32 0, i32 5
  %37 = load ptr, ptr %36, align 8
  %38 = load ptr, ptr %3, align 8
  %39 = getelementptr inbounds %struct.PmeErrorInputs, ptr %38, i32 0, i32 1
  %40 = load i32, ptr %39, align 8
  %41 = sext i32 %40 to i64
  %42 = load ptr, ptr %3, align 8
  %43 = getelementptr inbounds %struct.PmeErrorInputs, ptr %42, i32 0, i32 13
  %44 = load ptr, ptr %43, align 8
  call void @_Z9nblock_bcIfEvP10tmpi_comm_mPT_(ptr noundef %37, i64 noundef %41, ptr noundef %44)
  %45 = load ptr, ptr %4, align 8
  %46 = getelementptr inbounds %struct.t_commrec, ptr %45, i32 0, i32 5
  %47 = load ptr, ptr %46, align 8
  %48 = load ptr, ptr %3, align 8
  %49 = getelementptr inbounds %struct.PmeErrorInputs, ptr %48, i32 0, i32 1
  %50 = load i32, ptr %49, align 8
  %51 = sext i32 %50 to i64
  %52 = load ptr, ptr %3, align 8
  %53 = getelementptr inbounds %struct.PmeErrorInputs, ptr %52, i32 0, i32 17
  %54 = load ptr, ptr %53, align 8
  call void @_Z9nblock_bcIiEvP10tmpi_comm_mPT_(ptr noundef %47, i64 noundef %51, ptr noundef %54)
  %55 = load ptr, ptr %4, align 8
  %56 = getelementptr inbounds %struct.t_commrec, ptr %55, i32 0, i32 5
  %57 = load ptr, ptr %56, align 8
  %58 = load ptr, ptr %3, align 8
  %59 = getelementptr inbounds %struct.PmeErrorInputs, ptr %58, i32 0, i32 1
  %60 = load i32, ptr %59, align 8
  %61 = sext i32 %60 to i64
  %62 = load ptr, ptr %3, align 8
  %63 = getelementptr inbounds %struct.PmeErrorInputs, ptr %62, i32 0, i32 19
  %64 = load ptr, ptr %63, align 8
  call void @_Z9nblock_bcIfEvP10tmpi_comm_mPT_(ptr noundef %57, i64 noundef %61, ptr noundef %64)
  %65 = load ptr, ptr %4, align 8
  %66 = getelementptr inbounds %struct.t_commrec, ptr %65, i32 0, i32 5
  %67 = load ptr, ptr %66, align 8
  %68 = load ptr, ptr %3, align 8
  %69 = getelementptr inbounds %struct.PmeErrorInputs, ptr %68, i32 0, i32 1
  %70 = load i32, ptr %69, align 8
  %71 = sext i32 %70 to i64
  %72 = load ptr, ptr %3, align 8
  %73 = getelementptr inbounds %struct.PmeErrorInputs, ptr %72, i32 0, i32 20
  %74 = load ptr, ptr %73, align 8
  call void @_Z9nblock_bcIfEvP10tmpi_comm_mPT_(ptr noundef %67, i64 noundef %71, ptr noundef %74)
  %75 = load ptr, ptr %4, align 8
  %76 = getelementptr inbounds %struct.t_commrec, ptr %75, i32 0, i32 5
  %77 = load ptr, ptr %76, align 8
  %78 = load ptr, ptr %3, align 8
  %79 = getelementptr inbounds %struct.PmeErrorInputs, ptr %78, i32 0, i32 2
  call void @_Z8block_bcIfEvP10tmpi_comm_RT_(ptr noundef %77, ptr noundef nonnull align 4 dereferenceable(4) %79)
  %80 = load ptr, ptr %4, align 8
  %81 = getelementptr inbounds %struct.t_commrec, ptr %80, i32 0, i32 5
  %82 = load ptr, ptr %81, align 8
  %83 = load ptr, ptr %3, align 8
  %84 = getelementptr inbounds %struct.PmeErrorInputs, ptr %83, i32 0, i32 3
  call void @_Z8block_bcIA3_A3_fEvP10tmpi_comm_RT_(ptr noundef %82, ptr noundef nonnull align 4 dereferenceable(36) %84)
  %85 = load ptr, ptr %4, align 8
  %86 = getelementptr inbounds %struct.t_commrec, ptr %85, i32 0, i32 5
  %87 = load ptr, ptr %86, align 8
  %88 = load ptr, ptr %3, align 8
  %89 = getelementptr inbounds %struct.PmeErrorInputs, ptr %88, i32 0, i32 4
  call void @_Z8block_bcIiEvP10tmpi_comm_RT_(ptr noundef %87, ptr noundef nonnull align 4 dereferenceable(4) %89)
  %90 = load ptr, ptr %4, align 8
  %91 = getelementptr inbounds %struct.t_commrec, ptr %90, i32 0, i32 5
  %92 = load ptr, ptr %91, align 8
  %93 = load ptr, ptr %3, align 8
  %94 = getelementptr inbounds %struct.PmeErrorInputs, ptr %93, i32 0, i32 14
  call void @_Z8block_bcIfEvP10tmpi_comm_RT_(ptr noundef %92, ptr noundef nonnull align 4 dereferenceable(4) %94)
  %95 = load ptr, ptr %4, align 8
  %96 = getelementptr inbounds %struct.t_commrec, ptr %95, i32 0, i32 5
  %97 = load ptr, ptr %96, align 8
  %98 = load ptr, ptr %3, align 8
  %99 = getelementptr inbounds %struct.PmeErrorInputs, ptr %98, i32 0, i32 21
  call void @_Z8block_bcIbEvP10tmpi_comm_RT_(ptr noundef %97, ptr noundef nonnull align 1 dereferenceable(1) %99)
  %100 = load ptr, ptr %4, align 8
  %101 = getelementptr inbounds %struct.t_commrec, ptr %100, i32 0, i32 5
  %102 = load ptr, ptr %101, align 8
  %103 = load ptr, ptr %3, align 8
  %104 = getelementptr inbounds %struct.PmeErrorInputs, ptr %103, i32 0, i32 15
  call void @_Z8block_bcIfEvP10tmpi_comm_RT_(ptr noundef %102, ptr noundef nonnull align 4 dereferenceable(4) %104)
  %105 = load ptr, ptr %4, align 8
  %106 = getelementptr inbounds %struct.t_commrec, ptr %105, i32 0, i32 5
  %107 = load ptr, ptr %106, align 8
  %108 = load ptr, ptr %3, align 8
  %109 = getelementptr inbounds %struct.PmeErrorInputs, ptr %108, i32 0, i32 16
  call void @_Z8block_bcIfEvP10tmpi_comm_RT_(ptr noundef %107, ptr noundef nonnull align 4 dereferenceable(4) %109)
  ret void
}