; Function Attrs: mustprogress uwtable
define internal fastcc void @_ZL10bcast_infoP14PmeErrorInputsPK9t_commrec(ptr noundef %0, ptr nocapture noundef readonly %1) unnamed_addr #0 {
  %3 = getelementptr inbounds i8, ptr %1, i64 24
  %4 = load ptr, ptr %3, align 8
  %5 = getelementptr inbounds i8, ptr %0, i64 8
  %6 = load i32, ptr %5, align 8
  %7 = sext i32 %6 to i64
  %8 = getelementptr inbounds i8, ptr %0, i64 80
  %9 = load ptr, ptr %8, align 8
  %10 = shl nsw i64 %7, 2
  tail call void @_Z9gmx_bcastmPvP10tmpi_comm_(i64 noundef %10, ptr noundef %9, ptr noundef %4)
  %11 = load ptr, ptr %3, align 8
  %12 = load i32, ptr %5, align 8
  %13 = sext i32 %12 to i64
  %14 = getelementptr inbounds i8, ptr %0, i64 88
  %15 = load ptr, ptr %14, align 8
  %16 = shl nsw i64 %13, 2
  tail call void @_Z9gmx_bcastmPvP10tmpi_comm_(i64 noundef %16, ptr noundef %15, ptr noundef %11)
  %17 = load ptr, ptr %3, align 8
  %18 = load i32, ptr %5, align 8
  %19 = sext i32 %18 to i64
  %20 = getelementptr inbounds i8, ptr %0, i64 96
  %21 = load ptr, ptr %20, align 8
  %22 = shl nsw i64 %19, 2
  tail call void @_Z9gmx_bcastmPvP10tmpi_comm_(i64 noundef %22, ptr noundef %21, ptr noundef %17)
  %23 = load ptr, ptr %3, align 8
  %24 = load i32, ptr %5, align 8
  %25 = sext i32 %24 to i64
  %26 = getelementptr inbounds i8, ptr %0, i64 120
  %27 = load ptr, ptr %26, align 8
  %28 = shl nsw i64 %25, 2
  tail call void @_Z9gmx_bcastmPvP10tmpi_comm_(i64 noundef %28, ptr noundef %27, ptr noundef %23)
  %29 = load ptr, ptr %3, align 8
  %30 = load i32, ptr %5, align 8
  %31 = sext i32 %30 to i64
  %32 = getelementptr inbounds i8, ptr %0, i64 144
  %33 = load ptr, ptr %32, align 8
  %34 = shl nsw i64 %31, 2
  tail call void @_Z9gmx_bcastmPvP10tmpi_comm_(i64 noundef %34, ptr noundef %33, ptr noundef %29)
  %35 = load ptr, ptr %3, align 8
  %36 = load i32, ptr %5, align 8
  %37 = sext i32 %36 to i64
  %38 = getelementptr inbounds i8, ptr %0, i64 160
  %39 = load ptr, ptr %38, align 8
  %40 = shl nsw i64 %37, 2
  tail call void @_Z9gmx_bcastmPvP10tmpi_comm_(i64 noundef %40, ptr noundef %39, ptr noundef %35)
  %41 = load ptr, ptr %3, align 8
  %42 = load i32, ptr %5, align 8
  %43 = sext i32 %42 to i64
  %44 = getelementptr inbounds i8, ptr %0, i64 168
  %45 = load ptr, ptr %44, align 8
  %46 = shl nsw i64 %43, 2
  tail call void @_Z9gmx_bcastmPvP10tmpi_comm_(i64 noundef %46, ptr noundef %45, ptr noundef %41)
  %47 = load ptr, ptr %3, align 8
  %48 = getelementptr inbounds i8, ptr %0, i64 12
  tail call void @_Z9gmx_bcastmPvP10tmpi_comm_(i64 noundef 4, ptr noundef nonnull %48, ptr noundef %47)
  %49 = load ptr, ptr %3, align 8
  %50 = getelementptr inbounds i8, ptr %0, i64 16
  tail call void @_Z9gmx_bcastmPvP10tmpi_comm_(i64 noundef 36, ptr noundef nonnull %50, ptr noundef %49)
  %51 = load ptr, ptr %3, align 8
  %52 = getelementptr inbounds i8, ptr %0, i64 52
  tail call void @_Z9gmx_bcastmPvP10tmpi_comm_(i64 noundef 4, ptr noundef nonnull %52, ptr noundef %51)
  %53 = load ptr, ptr %3, align 8
  %54 = getelementptr inbounds i8, ptr %0, i64 128
  tail call void @_Z9gmx_bcastmPvP10tmpi_comm_(i64 noundef 4, ptr noundef nonnull %54, ptr noundef %53)
  %55 = load ptr, ptr %3, align 8
  %56 = getelementptr inbounds i8, ptr %0, i64 176
  tail call void @_Z9gmx_bcastmPvP10tmpi_comm_(i64 noundef 1, ptr noundef nonnull %56, ptr noundef %55)
  %57 = load ptr, ptr %3, align 8
  %58 = getelementptr inbounds i8, ptr %0, i64 132
  tail call void @_Z9gmx_bcastmPvP10tmpi_comm_(i64 noundef 4, ptr noundef nonnull %58, ptr noundef %57)
  %59 = load ptr, ptr %3, align 8
  %60 = getelementptr inbounds i8, ptr %0, i64 136
  tail call void @_Z9gmx_bcastmPvP10tmpi_comm_(i64 noundef 4, ptr noundef nonnull %60, ptr noundef %59)
  ret void
}